; ModuleID = '29/354.c'
source_filename = "29/354.c"
target datalayout = "e-m:e-p270:32:32-p271:32:32-p272:64:64-i64:64-f80:128-n8:16:32:64-S128"
target triple = "x86_64-pc-linux-gnu"

@.str = private unnamed_addr constant [3 x i8] c"%d\00", align 1
@.str.1 = private unnamed_addr constant [6 x i8] c"%.3f\0A\00", align 1

; Function Attrs: noinline nounwind uwtable
define dso_local i32 @main() #0 {
  %1 = alloca i32, align 4
  %2 = alloca [1000 x float], align 16
  %3 = alloca [1000 x float], align 16
  %4 = alloca i32, align 4
  %5 = alloca i32, align 4
  %6 = alloca i32, align 4
  %7 = alloca i32, align 4
  %8 = alloca float, align 4
  store i32 0, i32* %1, align 4
  %9 = getelementptr inbounds [1000 x float], [1000 x float]* %2, i64 0, i64 1
  store float 1.000000e+00, float* %9, align 4
  %10 = getelementptr inbounds [1000 x float], [1000 x float]* %2, i64 0, i64 2
  store float 2.000000e+00, float* %10, align 8
  %11 = call i32 (i8*, ...) @__isoc99_scanf(i8* getelementptr inbounds ([3 x i8], [3 x i8]* @.str, i64 0, i64 0), i32* %5)
  store i32 1, i32* %6, align 4
  br label %12

12:                                               ; preds = %66, %0
  %13 = load i32, i32* %6, align 4
  %14 = load i32, i32* %5, align 4
  %15 = icmp sle i32 %13, %14
  br i1 %15, label %16, label %69

16:                                               ; preds = %12
  store float 0.000000e+00, float* %8, align 4
  %17 = call i32 (i8*, ...) @__isoc99_scanf(i8* getelementptr inbounds ([3 x i8], [3 x i8]* @.str, i64 0, i64 0), i32* %4)
  store i32 3, i32* %7, align 4
  br label %18

18:                                               ; preds = %38, %16
  %19 = load i32, i32* %7, align 4
  %20 = load i32, i32* %4, align 4
  %21 = add nsw i32 %20, 1
  %22 = icmp sle i32 %19, %21
  br i1 %22, label %23, label %41

23:                                               ; preds = %18
  %24 = load i32, i32* %7, align 4
  %25 = sub nsw i32 %24, 1
  %26 = sext i32 %25 to i64
  %27 = getelementptr inbounds [1000 x float], [1000 x float]* %2, i64 0, i64 %26
  %28 = load float, float* %27, align 4
  %29 = load i32, i32* %7, align 4
  %30 = sub nsw i32 %29, 2
  %31 = sext i32 %30 to i64
  %32 = getelementptr inbounds [1000 x float], [1000 x float]* %2, i64 0, i64 %31
  %33 = load float, float* %32, align 4
  %34 = fadd float %28, %33
  %35 = load i32, i32* %7, align 4
  %36 = sext i32 %35 to i64
  %37 = getelementptr inbounds [1000 x float], [1000 x float]* %2, i64 0, i64 %36
  store float %34, float* %37, align 4
  br label %38

38:                                               ; preds = %23
  %39 = load i32, i32* %7, align 4
  %40 = add nsw i32 %39, 1
  store i32 %40, i32* %7, align 4
  br label %18

41:                                               ; preds = %18
  store i32 1, i32* %7, align 4
  br label %42

42:                                               ; preds = %59, %41
  %43 = load i32, i32* %7, align 4
  %44 = load i32, i32* %4, align 4
  %45 = icmp sle i32 %43, %44
  br i1 %45, label %46, label %62

46:                                               ; preds = %42
  %47 = load float, float* %8, align 4
  %48 = load i32, i32* %7, align 4
  %49 = add nsw i32 %48, 1
  %50 = sext i32 %49 to i64
  %51 = getelementptr inbounds [1000 x float], [1000 x float]* %2, i64 0, i64 %50
  %52 = load float, float* %51, align 4
  %53 = load i32, i32* %7, align 4
  %54 = sext i32 %53 to i64
  %55 = getelementptr inbounds [1000 x float], [1000 x float]* %2, i64 0, i64 %54
  %56 = load float, float* %55, align 4
  %57 = fdiv float %52, %56
  %58 = fadd float %47, %57
  store float %58, float* %8, align 4
  br label %59

59:                                               ; preds = %46
  %60 = load i32, i32* %7, align 4
  %61 = add nsw i32 %60, 1
  store i32 %61, i32* %7, align 4
  br label %42

62:                                               ; preds = %42
  %63 = load float, float* %8, align 4
  %64 = fpext float %63 to double
  %65 = call i32 (i8*, ...) @printf(i8* getelementptr inbounds ([6 x i8], [6 x i8]* @.str.1, i64 0, i64 0), double %64)
  br label %66

66:                                               ; preds = %62
  %67 = load i32, i32* %6, align 4
  %68 = add nsw i32 %67, 1
  store i32 %68, i32* %6, align 4
  br label %12

69:                                               ; preds = %12
  %70 = call i32 @getchar()
  %71 = call i32 @getchar()
  %72 = load i32, i32* %1, align 4
  ret i32 %72
}

declare dso_local i32 @__isoc99_scanf(i8*, ...) #1

declare dso_local i32 @printf(i8*, ...) #1

declare dso_local i32 @getchar() #1


!llvm.module.flags = !{!0}
!llvm.ident = !{!1}

!0 = !{i32 1, !"wchar_size", i32 4}
!1 = !{!"clang version 10.0.0-4ubuntu1 "}
